target datalayout = "e-m:e-p270:32:32-p271:32:32-p272:64:64-i64:64-i128:128-f80:128-n8:16:32:64-S128"
target triple = "x86_64-pc-linux-gnu"

; Function Attrs: nounwind uwtable
define internal i32 @stbi__addsizes_valid(i32 noundef %0, i32 noundef %1) #0 {
  %3 = alloca i32, align 4
  %4 = alloca i32, align 4
  %5 = alloca i32, align 4
  store i32 %0, ptr %4, align 4
  store i32 %1, ptr %5, align 4
  %6 = load i32, ptr %5, align 4
  %7 = icmp slt i32 %6, 0
  br i1 %7, label %8, label %9

8:                                                ; preds = %2
  store i32 0, ptr %3, align 4
  br label %15

9:                                                ; preds = %2
  %10 = load i32, ptr %4, align 4
  %11 = load i32, ptr %5, align 4
  %12 = sub nsw i32 2147483647, %11
  %13 = icmp sle i32 %10, %12
  %14 = zext i1 %13 to i32
  store i32 %14, ptr %3, align 4
  br label %15

15:                                               ; preds = %9, %8
  %16 = load i32, ptr %3, align 4
  ret i32 %16
}

; Function Attrs: nounwind uwtable
define internal i32 @stbi__mul2sizes_valid(i32 noundef %0, i32 noundef %1) #0 {
  %3 = alloca i32, align 4
  %4 = alloca i32, align 4
  %5 = alloca i32, align 4
  store i32 %0, ptr %4, align 4
  store i32 %1, ptr %5, align 4
  %6 = load i32, ptr %4, align 4
  %7 = icmp slt i32 %6, 0
  br i1 %7, label %11, label %8

8:                                                ; preds = %2
  %9 = load i32, ptr %5, align 4
  %10 = icmp slt i32 %9, 0
  br i1 %10, label %11, label %12

11:                                               ; preds = %8, %2
  store i32 0, ptr %3, align 4
  br label %22

12:                                               ; preds = %8
  %13 = load i32, ptr %5, align 4
  %14 = icmp eq i32 %13, 0
  br i1 %14, label %15, label %16

15:                                               ; preds = %12
  store i32 1, ptr %3, align 4
  br label %22

16:                                               ; preds = %12
  %17 = load i32, ptr %4, align 4
  %18 = load i32, ptr %5, align 4
  %19 = sdiv i32 2147483647, %18
  %20 = icmp sle i32 %17, %19
  %21 = zext i1 %20 to i32
  store i32 %21, ptr %3, align 4
  br label %22

22:                                               ; preds = %16, %15, %11
  %23 = load i32, ptr %3, align 4
  ret i32 %23
}

; Function Attrs: nounwind uwtable
define internal ptr @stbi__malloc(i64 noundef %0) #0 {
  %2 = alloca i64, align 8
  store i64 %0, ptr %2, align 8
  %3 = load i64, ptr %2, align 8
  %4 = call noalias ptr @SDL_malloc_REAL(i64 noundef %3)
  ret ptr %4
}

; Function Attrs: nounwind uwtable
define internal i32 @stbi__mad3sizes_valid(i32 noundef %0, i32 noundef %1, i32 noundef %2, i32 noundef %3) #0 {
  %5 = alloca i32, align 4
  %6 = alloca i32, align 4
  %7 = alloca i32, align 4
  %8 = alloca i32, align 4
  store i32 %0, ptr %5, align 4
  store i32 %1, ptr %6, align 4
  store i32 %2, ptr %7, align 4
  store i32 %3, ptr %8, align 4
  %9 = load i32, ptr %5, align 4
  %10 = load i32, ptr %6, align 4
  %11 = call i32 @stbi__mul2sizes_valid(i32 noundef %9, i32 noundef %10)
  %12 = icmp ne i32 %11, 0
  br i1 %12, label %13, label %29

13:                                               ; preds = %4
  %14 = load i32, ptr %5, align 4
  %15 = load i32, ptr %6, align 4
  %16 = mul nsw i32 %14, %15
  %17 = load i32, ptr %7, align 4
  %18 = call i32 @stbi__mul2sizes_valid(i32 noundef %16, i32 noundef %17)
  %19 = icmp ne i32 %18, 0
  br i1 %19, label %20, label %29

20:                                               ; preds = %13
  %21 = load i32, ptr %5, align 4
  %22 = load i32, ptr %6, align 4
  %23 = mul nsw i32 %21, %22
  %24 = load i32, ptr %7, align 4
  %25 = mul nsw i32 %23, %24
  %26 = load i32, ptr %8, align 4
  %27 = call i32 @stbi__addsizes_valid(i32 noundef %25, i32 noundef %26)
  %28 = icmp ne i32 %27, 0
  br label %29

29:                                               ; preds = %20, %13, %4
  %30 = phi i1 [ false, %13 ], [ false, %4 ], [ %28, %20 ]
  %31 = zext i1 %30 to i32
  ret i32 %31
}

; Function Attrs: nounwind uwtable
define internal ptr @stbi__malloc_mad3(i32 noundef %0, i32 noundef %1, i32 noundef %2, i32 noundef %3) #0 {
  %5 = alloca ptr, align 8
  %6 = alloca i32, align 4
  %7 = alloca i32, align 4
  %8 = alloca i32, align 4
  %9 = alloca i32, align 4
  store i32 %0, ptr %6, align 4
  store i32 %1, ptr %7, align 4
  store i32 %2, ptr %8, align 4
  store i32 %3, ptr %9, align 4
  %10 = load i32, ptr %6, align 4
  %11 = load i32, ptr %7, align 4
  %12 = load i32, ptr %8, align 4
  %13 = load i32, ptr %9, align 4
  %14 = call i32 @stbi__mad3sizes_valid(i32 noundef %10, i32 noundef %11, i32 noundef %12, i32 noundef %13)
  %15 = icmp ne i32 %14, 0
  br i1 %15, label %17, label %16

16:                                               ; preds = %4
  store ptr null, ptr %5, align 8
  br label %27

17:                                               ; preds = %4
  %18 = load i32, ptr %6, align 4
  %19 = load i32, ptr %7, align 4
  %20 = mul nsw i32 %18, %19
  %21 = load i32, ptr %8, align 4
  %22 = mul nsw i32 %20, %21
  %23 = load i32, ptr %9, align 4
  %24 = add nsw i32 %22, %23
  %25 = sext i32 %24 to i64
  %26 = call ptr @stbi__malloc(i64 noundef %25)
  store ptr %26, ptr %5, align 8
  br label %27

27:                                               ; preds = %17, %16
  %28 = load ptr, ptr %5, align 8
  ret ptr %28
}