; Function Attrs: nounwind uwtable
define internal fastcc noalias ptr @stbi__malloc_mad3(i32 noundef %0, i32 noundef %1, i32 noundef %2, i32 noundef range(i32 1, 16) %3) unnamed_addr #0 {
  %5 = or i32 %1, %0
  %or.cond.not.i.i = icmp sgt i32 %5, -1
  br i1 %or.cond.not.i.i, label %6, label %stbi__mad3sizes_valid.exit.thread

6:                                                ; preds = %4
  %7 = icmp eq i32 %1, 0
  br i1 %7, label %stbi__mul2sizes_valid.exit.thread15.i, label %stbi__mul2sizes_valid.exit.i

stbi__mul2sizes_valid.exit.i:                     ; preds = %6
  %8 = udiv i32 2147483647, %1
  %.not23.i = icmp sgt i32 %0, %8
  br i1 %.not23.i, label %stbi__mad3sizes_valid.exit.thread, label %stbi__mul2sizes_valid.exit.thread15.i

stbi__mul2sizes_valid.exit.thread15.i:            ; preds = %stbi__mul2sizes_valid.exit.i, %6
  %9 = mul nsw i32 %1, %0
  %10 = or i32 %2, %9
  %or.cond.not.i10.i = icmp sgt i32 %10, -1
  br i1 %or.cond.not.i10.i, label %11, label %stbi__mad3sizes_valid.exit.thread

11:                                               ; preds = %stbi__mul2sizes_valid.exit.thread15.i
  %12 = icmp eq i32 %2, 0
  br i1 %12, label %stbi__mad3sizes_valid.exit, label %stbi__mul2sizes_valid.exit12.i

stbi__mul2sizes_valid.exit12.i:                   ; preds = %11
  %13 = udiv i32 2147483647, %2
  %.not.i = icmp sgt i32 %9, %13
  br i1 %.not.i, label %stbi__mad3sizes_valid.exit.thread, label %stbi__mad3sizes_valid.exit

stbi__mad3sizes_valid.exit:                       ; preds = %11, %stbi__mul2sizes_valid.exit12.i
  %14 = mul nsw i32 %9, %2
  %15 = xor i32 %3, 2147483647
  %.not9 = icmp sgt i32 %14, %15
  br i1 %.not9, label %stbi__mad3sizes_valid.exit.thread, label %16

16:                                               ; preds = %stbi__mad3sizes_valid.exit
  %17 = add nsw i32 %14, %3
  %18 = sext i32 %17 to i64
  %19 = tail call noalias ptr @SDL_malloc_REAL(i64 noundef range(i64 -2147483648, 4294967296) %18) #11
  br label %stbi__mad3sizes_valid.exit.thread

stbi__mad3sizes_valid.exit.thread:                ; preds = %stbi__mul2sizes_valid.exit.thread15.i, %4, %stbi__mul2sizes_valid.exit.i, %stbi__mul2sizes_valid.exit12.i, %stbi__mad3sizes_valid.exit, %16
  %.0 = phi ptr [ %19, %16 ], [ null, %stbi__mad3sizes_valid.exit ], [ null, %stbi__mul2sizes_valid.exit12.i ], [ null, %stbi__mul2sizes_valid.exit.i ], [ null, %4 ], [ null, %stbi__mul2sizes_valid.exit.thread15.i ]
  ret ptr %.0
}